target datalayout = "e-m:e-p270:32:32-p271:32:32-p272:64:64-i64:64-i128:128-f80:128-n8:16:32:64-S128"
target triple = "x86_64-pc-linux-gnu"

%struct._DtBauhausWidget = type { %struct._GtkDrawingArea, i32, ptr, ptr, i32, [256 x i8], i32, ptr, i32, ptr, ptr, i32, ptr, i32, i32, i32, %struct._GtkBorder, %struct._GtkBorder, i32, %union.dt_bauhaus_data_t }
%struct._GtkDrawingArea = type { %struct._GtkWidget, ptr }
%struct._GtkWidget = type { %struct._GObject, ptr }
%struct._GObject = type { %struct._GTypeInstance, i32, ptr }
%struct._GTypeInstance = type { ptr }
%struct._GtkBorder = type { i16, i16, i16, i16 }
%union.dt_bauhaus_data_t = type { %struct.dt_bauhaus_slider_data_t }
%struct.dt_bauhaus_slider_data_t = type { float, float, float, float, float, float, float, float, float, float, i32, ptr, i32, ptr, i8, ptr, float, float, i8, i32, ptr }

@dt_bh_get_type.static_g_define_type_id = internal global i64 0, align 8
@.str.53 = private unnamed_addr constant [18 x i8] c"bauhaus/zoom_step\00", align 1

; Function Attrs: nounwind uwtable
define i64 @dt_bh_get_type() #0 {
  %1 = alloca i32, align 4
  %2 = alloca i64, align 8
  %3 = alloca ptr, align 8
  %4 = alloca i64, align 8
  %5 = alloca i64, align 8
  call void @llvm.lifetime.start.p0(i64 8, ptr %2) #13
  call void @llvm.lifetime.start.p0(i64 8, ptr %3) #13
  store ptr @dt_bh_get_type.static_g_define_type_id, ptr %3, align 8, !tbaa !6
  %6 = load ptr, ptr %3, align 8, !tbaa !6
  %7 = load atomic i64, ptr %6 seq_cst, align 8
  store i64 %7, ptr %2, align 8
  %8 = load i64, ptr %2, align 8, !tbaa !11
  store i64 %8, ptr %4, align 8, !tbaa !11
  call void @llvm.lifetime.end.p0(i64 8, ptr %3) #13
  call void @llvm.lifetime.end.p0(i64 8, ptr %2) #13
  %9 = load i64, ptr %4, align 8, !tbaa !11
  %10 = icmp ne i64 %9, 0
  br i1 %10, label %14, label %11

11:                                               ; preds = %0
  %12 = call i32 @g_once_init_enter(ptr noundef @dt_bh_get_type.static_g_define_type_id)
  %13 = icmp ne i32 %12, 0
  br label %14

14:                                               ; preds = %11, %0
  %15 = phi i1 [ false, %0 ], [ %13, %11 ]
  %16 = zext i1 %15 to i32
  store i32 %16, ptr %1, align 4, !tbaa !13
  %17 = load i32, ptr %1, align 4, !tbaa !13
  %18 = icmp ne i32 %17, 0
  br i1 %18, label %19, label %22

19:                                               ; preds = %14
  call void @llvm.lifetime.start.p0(i64 8, ptr %5) #13
  %20 = call i64 @dt_bh_get_type_once()
  store i64 %20, ptr %5, align 8, !tbaa !11
  %21 = load i64, ptr %5, align 8, !tbaa !11
  call void @g_once_init_leave(ptr noundef @dt_bh_get_type.static_g_define_type_id, i64 noundef %21)
  call void @llvm.lifetime.end.p0(i64 8, ptr %5) #13
  br label %22

22:                                               ; preds = %19, %14
  %23 = load i64, ptr @dt_bh_get_type.static_g_define_type_id, align 8, !tbaa !11
  ret i64 %23
}

; Function Attrs: inlinehint nounwind uwtable
define internal ptr @DT_BAUHAUS_WIDGET(ptr noundef %0) #4 {
  %2 = alloca ptr, align 8
  store ptr %0, ptr %2, align 8, !tbaa !32
  %3 = load ptr, ptr %2, align 8, !tbaa !32
  %4 = call i64 @dt_bh_get_type()
  %5 = call ptr @g_type_check_instance_cast(ptr noundef %3, i64 noundef %4)
  ret ptr %5
}

; Function Attrs: nounwind uwtable
define float @dt_bauhaus_slider_get_step(ptr noundef %0) #0 {
  %2 = alloca float, align 4
  %3 = alloca ptr, align 8
  %4 = alloca ptr, align 8
  %5 = alloca i32, align 4
  %6 = alloca ptr, align 8
  %7 = alloca float, align 4
  %8 = alloca i32, align 4
  %9 = alloca float, align 4
  %10 = alloca float, align 4
  %11 = alloca float, align 4
  %12 = alloca float, align 4
  %13 = alloca float, align 4
  store ptr %0, ptr %3, align 8, !tbaa !15
  call void @llvm.lifetime.start.p0(i64 8, ptr %4) #13
  %14 = load ptr, ptr %3, align 8, !tbaa !15
  %15 = call ptr @DT_BAUHAUS_WIDGET(ptr noundef %14)
  store ptr %15, ptr %4, align 8, !tbaa !17
  %16 = load ptr, ptr %4, align 8, !tbaa !17
  %17 = getelementptr inbounds nuw %struct._DtBauhausWidget, ptr %16, i32 0, i32 1
  %18 = load i32, ptr %17, align 8, !tbaa !139
  %19 = icmp ne i32 %18, 1
  br i1 %19, label %20, label %21

20:                                               ; preds = %1
  store float 0.000000e+00, ptr %2, align 4
  store i32 1, ptr %5, align 4
  br label %106

21:                                               ; preds = %1
  call void @llvm.lifetime.start.p0(i64 8, ptr %6) #13
  %22 = load ptr, ptr %4, align 8, !tbaa !17
  %23 = getelementptr inbounds nuw %struct._DtBauhausWidget, ptr %22, i32 0, i32 19
  store ptr %23, ptr %6, align 8, !tbaa !140
  call void @llvm.lifetime.start.p0(i64 4, ptr %7) #13
  %24 = load ptr, ptr %6, align 8, !tbaa !140
  %25 = getelementptr inbounds nuw %struct.dt_bauhaus_slider_data_t, ptr %24, i32 0, i32 2
  %26 = load float, ptr %25, align 8, !tbaa !263
  store float %26, ptr %7, align 4, !tbaa !130
  %27 = load float, ptr %7, align 4, !tbaa !130
  %28 = fcmp reassoc nsz arcp contract afn une float %27, 0.000000e+00
  br i1 %28, label %100, label %29

29:                                               ; preds = %21
  call void @llvm.lifetime.start.p0(i64 4, ptr %8) #13
  %30 = call i32 @dt_conf_get_bool(ptr noundef @.str.53)
  store i32 %30, ptr %8, align 4, !tbaa !13
  call void @llvm.lifetime.start.p0(i64 4, ptr %9) #13
  %31 = load i32, ptr %8, align 4, !tbaa !13
  %32 = icmp ne i32 %31, 0
  br i1 %32, label %33, label %37

33:                                               ; preds = %29
  %34 = load ptr, ptr %6, align 8, !tbaa !140
  %35 = getelementptr inbounds nuw %struct.dt_bauhaus_slider_data_t, ptr %34, i32 0, i32 4
  %36 = load float, ptr %35, align 8, !tbaa !148
  br label %41

37:                                               ; preds = %29
  %38 = load ptr, ptr %6, align 8, !tbaa !140
  %39 = getelementptr inbounds nuw %struct.dt_bauhaus_slider_data_t, ptr %38, i32 0, i32 6
  %40 = load float, ptr %39, align 8, !tbaa !207
  br label %41

41:                                               ; preds = %37, %33
  %42 = phi reassoc nsz arcp contract afn float [ %36, %33 ], [ %40, %37 ]
  store float %42, ptr %9, align 4, !tbaa !130
  call void @llvm.lifetime.start.p0(i64 4, ptr %10) #13
  %43 = load i32, ptr %8, align 4, !tbaa !13
  %44 = icmp ne i32 %43, 0
  br i1 %44, label %45, label %49

45:                                               ; preds = %41
  %46 = load ptr, ptr %6, align 8, !tbaa !140
  %47 = getelementptr inbounds nuw %struct.dt_bauhaus_slider_data_t, ptr %46, i32 0, i32 5
  %48 = load float, ptr %47, align 4, !tbaa !147
  br label %53

49:                                               ; preds = %41
  %50 = load ptr, ptr %6, align 8, !tbaa !140
  %51 = getelementptr inbounds nuw %struct.dt_bauhaus_slider_data_t, ptr %50, i32 0, i32 7
  %52 = load float, ptr %51, align 4, !tbaa !211
  br label %53

53:                                               ; preds = %49, %45
  %54 = phi reassoc nsz arcp contract afn float [ %48, %45 ], [ %52, %49 ]
  store float %54, ptr %10, align 4, !tbaa !130
  call void @llvm.lifetime.start.p0(i64 4, ptr %11) #13
  %55 = load float, ptr %10, align 4, !tbaa !130
  %56 = load float, ptr %9, align 4, !tbaa !130
  %57 = fsub reassoc nsz arcp contract afn float %55, %56
  %58 = load float, ptr %9, align 4, !tbaa !130
  %59 = call reassoc nsz arcp contract afn float @llvm.fabs.f32(float %58)
  %60 = load float, ptr %10, align 4, !tbaa !130
  %61 = call reassoc nsz arcp contract afn float @llvm.fabs.f32(float %60)
  %62 = call reassoc nsz arcp contract afn float @llvm.maxnum.f32(float %59, float %61)
  %63 = call reassoc nsz arcp contract afn float @llvm.minnum.f32(float %57, float %62)
  store float %63, ptr %11, align 4, !tbaa !130
  %64 = load float, ptr %11, align 4, !tbaa !130
  %65 = fcmp reassoc nsz arcp contract afn oge float %64, 1.000000e+02
  br i1 %65, label %66, label %67

66:                                               ; preds = %53
  store float 1.000000e+00, ptr %7, align 4, !tbaa !130
  br label %99

67:                                               ; preds = %53
  %68 = load float, ptr %11, align 4, !tbaa !130
  %69 = load ptr, ptr %6, align 8, !tbaa !140
  %70 = getelementptr inbounds nuw %struct.dt_bauhaus_slider_data_t, ptr %69, i32 0, i32 16
  %71 = load float, ptr %70, align 8, !tbaa !149
  %72 = call reassoc nsz arcp contract afn float @llvm.fabs.f32(float %71)
  %73 = fmul reassoc nsz arcp contract afn float %68, %72
  %74 = fdiv reassoc nsz arcp contract afn float %73, 1.000000e+02
  store float %74, ptr %7, align 4, !tbaa !130
  call void @llvm.lifetime.start.p0(i64 4, ptr %12) #13
  %75 = load float, ptr %7, align 4, !tbaa !130
  %76 = call reassoc nsz arcp contract afn float @llvm.log10.f32(float %75)
  store float %76, ptr %12, align 4, !tbaa !130
  call void @llvm.lifetime.start.p0(i64 4, ptr %13) #13
  %77 = load float, ptr %12, align 4, !tbaa !130
  %78 = fpext reassoc nsz arcp contract afn float %77 to double
  %79 = fadd reassoc nsz arcp contract afn double %78, 1.000000e-01
  %80 = fptrunc reassoc nsz arcp contract afn double %79 to float
  %81 = call reassoc nsz arcp contract afn float @llvm.floor.f32(float %80)
  store float %81, ptr %13, align 4, !tbaa !130
  %82 = load float, ptr %13, align 4, !tbaa !130
  %83 = call reassoc nsz arcp contract afn float @llvm.pow.f32(float 1.000000e+01, float %82)
  store float %83, ptr %7, align 4, !tbaa !130
  %84 = load float, ptr %12, align 4, !tbaa !130
  %85 = load float, ptr %13, align 4, !tbaa !130
  %86 = fsub reassoc nsz arcp contract afn float %84, %85
  %87 = fpext reassoc nsz arcp contract afn float %86 to double
  %88 = fcmp reassoc nsz arcp contract afn ogt double %87, 5.000000e-01
  br i1 %88, label %89, label %92

89:                                               ; preds = %67
  %90 = load float, ptr %7, align 4, !tbaa !130
  %91 = fmul reassoc nsz arcp contract afn float %90, 5.000000e+00
  store float %91, ptr %7, align 4, !tbaa !130
  br label %92

92:                                               ; preds = %89, %67
  %93 = load ptr, ptr %6, align 8, !tbaa !140
  %94 = getelementptr inbounds nuw %struct.dt_bauhaus_slider_data_t, ptr %93, i32 0, i32 16
  %95 = load float, ptr %94, align 8, !tbaa !149
  %96 = call reassoc nsz arcp contract afn float @llvm.fabs.f32(float %95)
  %97 = load float, ptr %7, align 4, !tbaa !130
  %98 = fdiv reassoc nsz arcp contract afn float %97, %96
  store float %98, ptr %7, align 4, !tbaa !130
  call void @llvm.lifetime.end.p0(i64 4, ptr %13) #13
  call void @llvm.lifetime.end.p0(i64 4, ptr %12) #13
  br label %99

99:                                               ; preds = %92, %66
  call void @llvm.lifetime.end.p0(i64 4, ptr %11) #13
  call void @llvm.lifetime.end.p0(i64 4, ptr %10) #13
  call void @llvm.lifetime.end.p0(i64 4, ptr %9) #13
  call void @llvm.lifetime.end.p0(i64 4, ptr %8) #13
  br label %100

100:                                              ; preds = %99, %21
  %101 = load float, ptr %7, align 4, !tbaa !130
  %102 = load ptr, ptr %6, align 8, !tbaa !140
  %103 = getelementptr inbounds nuw %struct.dt_bauhaus_slider_data_t, ptr %102, i32 0, i32 16
  %104 = load float, ptr %103, align 8, !tbaa !149
  %105 = call reassoc nsz arcp contract afn float @llvm.copysign.f32(float %101, float %104)
  store float %105, ptr %2, align 4
  store i32 1, ptr %5, align 4
  call void @llvm.lifetime.end.p0(i64 4, ptr %7) #13
  call void @llvm.lifetime.end.p0(i64 8, ptr %6) #13
  br label %106

106:                                              ; preds = %100, %20
  call void @llvm.lifetime.end.p0(i64 8, ptr %4) #13
  %107 = load float, ptr %2, align 4
  ret float %107
}