; Function Attrs: nounwind uwtable
define float @dt_bauhaus_slider_get_step(ptr noundef %0) local_unnamed_addr #0 {
  %2 = load atomic i64, ptr @dt_bh_get_type.static_g_define_type_id seq_cst, align 8
  %.not.i.i = icmp eq i64 %2, 0
  br i1 %.not.i.i, label %3, label %DT_BAUHAUS_WIDGET.exit

3:                                                ; preds = %1
  %4 = tail call i32 @g_once_init_enter(ptr noundef nonnull @dt_bh_get_type.static_g_define_type_id) #19
  %.not4.i.i = icmp eq i32 %4, 0
  br i1 %.not4.i.i, label %DT_BAUHAUS_WIDGET.exit, label %5

5:                                                ; preds = %3
  %6 = tail call fastcc i64 @dt_bh_get_type_once()
  tail call void @g_once_init_leave(ptr noundef nonnull @dt_bh_get_type.static_g_define_type_id, i64 noundef %6) #19
  br label %DT_BAUHAUS_WIDGET.exit

DT_BAUHAUS_WIDGET.exit:                           ; preds = %1, %3, %5
  %7 = load i64, ptr @dt_bh_get_type.static_g_define_type_id, align 8, !tbaa !6
  %8 = tail call ptr @g_type_check_instance_cast(ptr noundef %0, i64 noundef %7) #19
  %9 = getelementptr inbounds nuw i8, ptr %8, i64 40
  %10 = load i32, ptr %9, align 8, !tbaa !105
  %.not = icmp eq i32 %10, 1
  br i1 %.not, label %11, label %45

11:                                               ; preds = %DT_BAUHAUS_WIDGET.exit
  %12 = getelementptr inbounds nuw i8, ptr %8, i64 416
  %13 = load float, ptr %12, align 8, !tbaa !217
  %14 = fcmp reassoc nsz arcp contract afn une float %13, 0.000000e+00
  br i1 %14, label %41, label %15

15:                                               ; preds = %11
  %16 = tail call i32 @dt_conf_get_bool(ptr noundef nonnull @.str.53) #19
  %.not31 = icmp eq i32 %16, 0
  %.in.v = select i1 %.not31, i64 432, i64 424
  %.in = getelementptr inbounds nuw i8, ptr %8, i64 %.in.v
  %17 = load float, ptr %.in, align 8, !tbaa !144
  %.in32.v = select i1 %.not31, i64 436, i64 428
  %.in32 = getelementptr inbounds nuw i8, ptr %8, i64 %.in32.v
  %18 = load float, ptr %.in32, align 4, !tbaa !144
  %19 = fsub reassoc nsz arcp contract afn float %18, %17
  %20 = tail call reassoc nsz arcp contract afn float @llvm.fabs.f32(float %17)
  %21 = tail call reassoc nsz arcp contract afn float @llvm.fabs.f32(float %18)
  %22 = tail call reassoc nsz arcp contract afn float @llvm.maxnum.f32(float %20, float %21)
  %23 = tail call reassoc nsz arcp contract afn float @llvm.minnum.f32(float %19, float %22)
  %24 = fcmp reassoc nsz arcp contract afn ult float %23, 1.000000e+02
  br i1 %24, label %25, label %41

25:                                               ; preds = %15
  %26 = getelementptr inbounds nuw i8, ptr %8, i64 496
  %27 = load float, ptr %26, align 8, !tbaa !122
  %28 = tail call reassoc nsz arcp contract afn float @llvm.fabs.f32(float %27)
  %29 = fmul reassoc nsz arcp contract afn float %23, 0x3F847AE140000000
  %30 = fmul reassoc nsz arcp contract afn float %29, %28
  %31 = tail call reassoc nsz arcp contract afn float @llvm.log10.f32(float %30)
  %32 = fpext reassoc nsz arcp contract afn float %31 to double
  %33 = fadd reassoc nsz arcp contract afn double %32, 1.000000e-01
  %34 = fptrunc reassoc nsz arcp contract afn double %33 to float
  %35 = tail call reassoc nsz arcp contract afn float @llvm.floor.f32(float %34)
  %36 = tail call reassoc nsz arcp contract afn float @llvm.pow.f32(float 1.000000e+01, float %35)
  %37 = fsub reassoc nsz arcp contract afn float %31, %35
  %38 = fcmp reassoc nsz arcp contract afn ogt float %37, 5.000000e-01
  %39 = fmul reassoc nsz arcp contract afn float %36, 5.000000e+00
  %.2 = select nsz i1 %38, float %39, float %36
  %40 = fdiv reassoc nsz arcp contract afn float %.2, %28
  br label %41

41:                                               ; preds = %25, %15, %11
  %.028 = phi nsz float [ %13, %11 ], [ %40, %25 ], [ 1.000000e+00, %15 ]
  %42 = getelementptr inbounds nuw i8, ptr %8, i64 496
  %43 = load float, ptr %42, align 8, !tbaa !122
  %44 = tail call reassoc nsz arcp contract afn float @llvm.copysign.f32(float %.028, float %43)
  br label %45

45:                                               ; preds = %DT_BAUHAUS_WIDGET.exit, %41
  %.0 = phi nsz float [ %44, %41 ], [ 0.000000e+00, %DT_BAUHAUS_WIDGET.exit ]
  ret float %.0
}